target datalayout = "e-m:e-p270:32:32-p271:32:32-p272:64:64-i64:64-i128:128-f80:128-n8:16:32:64-S128"
target triple = "x86_64-pc-linux-gnu"

%"class.algebraic_numbers::manager" = type <{ ptr, ptr, i8, [7 x i8] }>

@.str = private unnamed_addr constant [10 x i8] c"algebraic\00", align 1

; Function Attrs: mustprogress uwtable
define hidden void @_ZN17algebraic_numbers7managerC2ER8reslimitR11mpq_managerILb0EERK10params_refP22small_object_allocator(ptr noundef nonnull align 8 dereferenceable(17) %0, ptr noundef nonnull align 8 dereferenceable(40) %1, ptr noundef nonnull align 8 dereferenceable(728) %2, ptr noundef nonnull align 8 dereferenceable(8) %3, ptr noundef %4) unnamed_addr #4 align 2 {
  %6 = alloca ptr, align 8
  %7 = alloca ptr, align 8
  %8 = alloca ptr, align 8
  %9 = alloca ptr, align 8
  %10 = alloca ptr, align 8
  store ptr %0, ptr %6, align 8, !tbaa !8
  store ptr %1, ptr %7, align 8, !tbaa !10
  store ptr %2, ptr %8, align 8, !tbaa !12
  store ptr %3, ptr %9, align 8, !tbaa !14
  store ptr %4, ptr %10, align 8, !tbaa !16
  %11 = load ptr, ptr %6, align 8
  %12 = getelementptr inbounds nuw %"class.algebraic_numbers::manager", ptr %11, i32 0, i32 2
  store i8 0, ptr %12, align 8, !tbaa !18
  %13 = load ptr, ptr %10, align 8, !tbaa !16
  %14 = getelementptr inbounds nuw %"class.algebraic_numbers::manager", ptr %11, i32 0, i32 1
  store ptr %13, ptr %14, align 8, !tbaa !22
  %15 = getelementptr inbounds nuw %"class.algebraic_numbers::manager", ptr %11, i32 0, i32 1
  %16 = load ptr, ptr %15, align 8, !tbaa !22
  %17 = icmp eq ptr %16, null
  br i1 %17, label %18, label %22

18:                                               ; preds = %5
  %19 = getelementptr inbounds nuw %"class.algebraic_numbers::manager", ptr %11, i32 0, i32 2
  store i8 1, ptr %19, align 8, !tbaa !18
  %20 = call noalias noundef ptr @_ZN6memory8allocateEm(i64 noundef 520)
  call void @_ZN22small_object_allocatorC1EPKc(ptr noundef nonnull align 8 dereferenceable(520) %20, ptr noundef @.str)
  %21 = getelementptr inbounds nuw %"class.algebraic_numbers::manager", ptr %11, i32 0, i32 1
  store ptr %20, ptr %21, align 8, !tbaa !22
  br label %22

22:                                               ; preds = %18, %5
  %23 = call noalias noundef ptr @_ZN6memory8allocateEm(i64 noundef 936)
  %24 = load ptr, ptr %7, align 8, !tbaa !10
  %25 = load ptr, ptr %8, align 8, !tbaa !12
  %26 = load ptr, ptr %9, align 8, !tbaa !14
  %27 = getelementptr inbounds nuw %"class.algebraic_numbers::manager", ptr %11, i32 0, i32 1
  %28 = load ptr, ptr %27, align 8, !tbaa !22
  call void @_ZN17algebraic_numbers7manager3impC2ER8reslimitRS0_R11mpq_managerILb0EERK10params_refR22small_object_allocator(ptr noundef nonnull align 8 dereferenceable(936) %23, ptr noundef nonnull align 8 dereferenceable(40) %24, ptr noundef nonnull align 8 dereferenceable(17) %11, ptr noundef nonnull align 8 dereferenceable(728) %25, ptr noundef nonnull align 8 dereferenceable(8) %26, ptr noundef nonnull align 8 dereferenceable(520) %28)
  %29 = getelementptr inbounds nuw %"class.algebraic_numbers::manager", ptr %11, i32 0, i32 0
  store ptr %23, ptr %29, align 8, !tbaa !23
  ret void
}