; Function Attrs: mustprogress uwtable
define hidden void @_ZN17algebraic_numbers7managerC2ER8reslimitR11mpq_managerILb0EERK10params_refP22small_object_allocator(ptr noundef nonnull align 8 dereferenceable(17) initializes((8, 17)) %0, ptr noundef nonnull align 8 dereferenceable(40) %1, ptr noundef nonnull align 8 dereferenceable(728) %2, ptr noundef nonnull align 8 dereferenceable(8) %3, ptr noundef %4) unnamed_addr #3 align 2 {
  %6 = getelementptr inbounds nuw i8, ptr %0, i64 16
  store i8 0, ptr %6, align 8, !tbaa !3
  %7 = getelementptr inbounds nuw i8, ptr %0, i64 8
  store ptr %4, ptr %7, align 8, !tbaa !11
  %8 = icmp eq ptr %4, null
  br i1 %8, label %9, label %11

9:                                                ; preds = %5
  store i8 1, ptr %6, align 8, !tbaa !3
  %10 = tail call noalias noundef ptr @_ZN6memory8allocateEm(i64 noundef 520)
  tail call void @_ZN22small_object_allocatorC1EPKc(ptr noundef nonnull align 8 dereferenceable(520) %10, ptr noundef nonnull @.str)
  store ptr %10, ptr %7, align 8, !tbaa !11
  br label %11

11:                                               ; preds = %9, %5
  %12 = tail call noalias noundef ptr @_ZN6memory8allocateEm(i64 noundef 936)
  %13 = load ptr, ptr %7, align 8, !tbaa !11
  tail call void @_ZN17algebraic_numbers7manager3impC2ER8reslimitRS0_R11mpq_managerILb0EERK10params_refR22small_object_allocator(ptr noundef nonnull align 8 dereferenceable(936) %12, ptr noundef nonnull align 8 dereferenceable(40) %1, ptr noundef nonnull align 8 dereferenceable(17) %0, ptr noundef nonnull align 8 dereferenceable(728) %2, ptr noundef nonnull align 8 dereferenceable(8) %3, ptr noundef nonnull align 8 dereferenceable(520) %13)
  store ptr %12, ptr %0, align 8, !tbaa !12
  ret void
}